target datalayout = "e-m:e-p270:32:32-p271:32:32-p272:64:64-i64:64-i128:128-f80:128-n8:16:32:64-S128"
target triple = "x86_64-pc-linux-gnu"

%struct.AVRational = type { i32, i32 }
%struct.AVChannelLayout = type { i32, i32, %union.anon.1, ptr }
%union.anon.1 = type { i64 }
%struct.TiffEncoderContext = type { ptr, ptr, i32, i32, i32, i32, i32, i32, i32, ptr, i32, ptr, i32, ptr, i32, i32, [384 x i8], i32, ptr, ptr, i32, [2 x i16], ptr, i32 }
%struct.AVFrame = type { [8 x ptr], [8 x i32], ptr, i32, i32, i32, i32, i32, %struct.AVRational, i64, i64, %struct.AVRational, i32, ptr, i32, i32, [8 x ptr], ptr, i32, ptr, i32, i32, i32, i32, i32, i32, i32, i64, ptr, i32, ptr, ptr, i64, i64, i64, i64, ptr, %struct.AVChannelLayout, i64 }

; Function Attrs: nounwind uwtable
define internal void @pack_yuv(ptr noundef %0, ptr noundef %1, ptr noundef %2, i32 noundef %3) #1 {
  %5 = alloca ptr, align 8
  %6 = alloca ptr, align 8
  %7 = alloca ptr, align 8
  %8 = alloca i32, align 4
  %9 = alloca i32, align 4
  %10 = alloca i32, align 4
  %11 = alloca i32, align 4
  %12 = alloca i32, align 4
  %13 = alloca ptr, align 8
  %14 = alloca ptr, align 8
  store ptr %0, ptr %5, align 8, !tbaa !29
  store ptr %1, ptr %6, align 8, !tbaa !37
  store ptr %2, ptr %7, align 8, !tbaa !65
  store i32 %3, ptr %8, align 4, !tbaa !44
  call void @llvm.lifetime.start.p0(i64 4, ptr %9) #9
  call void @llvm.lifetime.start.p0(i64 4, ptr %10) #9
  call void @llvm.lifetime.start.p0(i64 4, ptr %11) #9
  call void @llvm.lifetime.start.p0(i64 4, ptr %12) #9
  %15 = load ptr, ptr %5, align 8, !tbaa !29
  %16 = getelementptr inbounds nuw %struct.TiffEncoderContext, ptr %15, i32 0, i32 2
  %17 = load i32, ptr %16, align 8, !tbaa !46
  %18 = sub nsw i32 %17, 1
  %19 = load ptr, ptr %5, align 8, !tbaa !29
  %20 = getelementptr inbounds nuw %struct.TiffEncoderContext, ptr %19, i32 0, i32 21
  %21 = getelementptr inbounds [2 x i16], ptr %20, i64 0, i64 0
  %22 = load i16, ptr %21, align 4, !tbaa !49
  %23 = zext i16 %22 to i32
  %24 = sdiv i32 %18, %23
  %25 = add nsw i32 %24, 1
  store i32 %25, ptr %12, align 4, !tbaa !44
  call void @llvm.lifetime.start.p0(i64 8, ptr %13) #9
  %26 = load ptr, ptr %6, align 8, !tbaa !37
  %27 = getelementptr inbounds nuw %struct.AVFrame, ptr %26, i32 0, i32 0
  %28 = getelementptr inbounds [8 x ptr], ptr %27, i64 0, i64 1
  %29 = load ptr, ptr %28, align 8, !tbaa !65
  %30 = load i32, ptr %8, align 4, !tbaa !44
  %31 = load ptr, ptr %5, align 8, !tbaa !29
  %32 = getelementptr inbounds nuw %struct.TiffEncoderContext, ptr %31, i32 0, i32 21
  %33 = getelementptr inbounds [2 x i16], ptr %32, i64 0, i64 1
  %34 = load i16, ptr %33, align 2, !tbaa !49
  %35 = zext i16 %34 to i32
  %36 = sdiv i32 %30, %35
  %37 = load ptr, ptr %6, align 8, !tbaa !37
  %38 = getelementptr inbounds nuw %struct.AVFrame, ptr %37, i32 0, i32 1
  %39 = getelementptr inbounds [8 x i32], ptr %38, i64 0, i64 1
  %40 = load i32, ptr %39, align 4, !tbaa !44
  %41 = mul nsw i32 %36, %40
  %42 = sext i32 %41 to i64
  %43 = getelementptr inbounds i8, ptr %29, i64 %42
  store ptr %43, ptr %13, align 8, !tbaa !65
  call void @llvm.lifetime.start.p0(i64 8, ptr %14) #9
  %44 = load ptr, ptr %6, align 8, !tbaa !37
  %45 = getelementptr inbounds nuw %struct.AVFrame, ptr %44, i32 0, i32 0
  %46 = getelementptr inbounds [8 x ptr], ptr %45, i64 0, i64 2
  %47 = load ptr, ptr %46, align 8, !tbaa !65
  %48 = load i32, ptr %8, align 4, !tbaa !44
  %49 = load ptr, ptr %5, align 8, !tbaa !29
  %50 = getelementptr inbounds nuw %struct.TiffEncoderContext, ptr %49, i32 0, i32 21
  %51 = getelementptr inbounds [2 x i16], ptr %50, i64 0, i64 1
  %52 = load i16, ptr %51, align 2, !tbaa !49
  %53 = zext i16 %52 to i32
  %54 = sdiv i32 %48, %53
  %55 = load ptr, ptr %6, align 8, !tbaa !37
  %56 = getelementptr inbounds nuw %struct.AVFrame, ptr %55, i32 0, i32 1
  %57 = getelementptr inbounds [8 x i32], ptr %56, i64 0, i64 2
  %58 = load i32, ptr %57, align 8, !tbaa !44
  %59 = mul nsw i32 %54, %58
  %60 = sext i32 %59 to i64
  %61 = getelementptr inbounds i8, ptr %47, i64 %60
  store ptr %61, ptr %14, align 8, !tbaa !65
  %62 = load ptr, ptr %5, align 8, !tbaa !29
  %63 = getelementptr inbounds nuw %struct.TiffEncoderContext, ptr %62, i32 0, i32 2
  %64 = load i32, ptr %63, align 8, !tbaa !46
  %65 = load ptr, ptr %5, align 8, !tbaa !29
  %66 = getelementptr inbounds nuw %struct.TiffEncoderContext, ptr %65, i32 0, i32 21
  %67 = getelementptr inbounds [2 x i16], ptr %66, i64 0, i64 0
  %68 = load i16, ptr %67, align 4, !tbaa !49
  %69 = zext i16 %68 to i32
  %70 = srem i32 %64, %69
  %71 = icmp ne i32 %70, 0
  br i1 %71, label %83, label %72

72:                                               ; preds = %4
  %73 = load ptr, ptr %5, align 8, !tbaa !29
  %74 = getelementptr inbounds nuw %struct.TiffEncoderContext, ptr %73, i32 0, i32 3
  %75 = load i32, ptr %74, align 4, !tbaa !48
  %76 = load ptr, ptr %5, align 8, !tbaa !29
  %77 = getelementptr inbounds nuw %struct.TiffEncoderContext, ptr %76, i32 0, i32 21
  %78 = getelementptr inbounds [2 x i16], ptr %77, i64 0, i64 1
  %79 = load i16, ptr %78, align 2, !tbaa !49
  %80 = zext i16 %79 to i32
  %81 = srem i32 %75, %80
  %82 = icmp ne i32 %81, 0
  br i1 %82, label %83, label %194

83:                                               ; preds = %72, %4
  store i32 0, ptr %9, align 4, !tbaa !44
  br label %84

84:                                               ; preds = %190, %83
  %85 = load i32, ptr %9, align 4, !tbaa !44
  %86 = load i32, ptr %12, align 4, !tbaa !44
  %87 = icmp slt i32 %85, %86
  br i1 %87, label %88, label %193

88:                                               ; preds = %84
  store i32 0, ptr %10, align 4, !tbaa !44
  br label %89

89:                                               ; preds = %176, %88
  %90 = load i32, ptr %10, align 4, !tbaa !44
  %91 = load ptr, ptr %5, align 8, !tbaa !29
  %92 = getelementptr inbounds nuw %struct.TiffEncoderContext, ptr %91, i32 0, i32 21
  %93 = getelementptr inbounds [2 x i16], ptr %92, i64 0, i64 1
  %94 = load i16, ptr %93, align 2, !tbaa !49
  %95 = zext i16 %94 to i32
  %96 = icmp slt i32 %90, %95
  br i1 %96, label %97, label %179

97:                                               ; preds = %89
  store i32 0, ptr %11, align 4, !tbaa !44
  br label %98

98:                                               ; preds = %172, %97
  %99 = load i32, ptr %11, align 4, !tbaa !44
  %100 = load ptr, ptr %5, align 8, !tbaa !29
  %101 = getelementptr inbounds nuw %struct.TiffEncoderContext, ptr %100, i32 0, i32 21
  %102 = getelementptr inbounds [2 x i16], ptr %101, i64 0, i64 0
  %103 = load i16, ptr %102, align 4, !tbaa !49
  %104 = zext i16 %103 to i32
  %105 = icmp slt i32 %99, %104
  br i1 %105, label %106, label %175

106:                                              ; preds = %98
  %107 = load ptr, ptr %6, align 8, !tbaa !37
  %108 = getelementptr inbounds nuw %struct.AVFrame, ptr %107, i32 0, i32 0
  %109 = getelementptr inbounds [8 x ptr], ptr %108, i64 0, i64 0
  %110 = load ptr, ptr %109, align 8, !tbaa !65
  %111 = load i32, ptr %8, align 4, !tbaa !44
  %112 = load i32, ptr %10, align 4, !tbaa !44
  %113 = add nsw i32 %111, %112
  %114 = load ptr, ptr %5, align 8, !tbaa !29
  %115 = getelementptr inbounds nuw %struct.TiffEncoderContext, ptr %114, i32 0, i32 3
  %116 = load i32, ptr %115, align 4, !tbaa !48
  %117 = sub nsw i32 %116, 1
  %118 = icmp sgt i32 %113, %117
  br i1 %118, label %119, label %124

119:                                              ; preds = %106
  %120 = load ptr, ptr %5, align 8, !tbaa !29
  %121 = getelementptr inbounds nuw %struct.TiffEncoderContext, ptr %120, i32 0, i32 3
  %122 = load i32, ptr %121, align 4, !tbaa !48
  %123 = sub nsw i32 %122, 1
  br label %128

124:                                              ; preds = %106
  %125 = load i32, ptr %8, align 4, !tbaa !44
  %126 = load i32, ptr %10, align 4, !tbaa !44
  %127 = add nsw i32 %125, %126
  br label %128

128:                                              ; preds = %124, %119
  %129 = phi i32 [ %123, %119 ], [ %127, %124 ]
  %130 = load ptr, ptr %6, align 8, !tbaa !37
  %131 = getelementptr inbounds nuw %struct.AVFrame, ptr %130, i32 0, i32 1
  %132 = getelementptr inbounds [8 x i32], ptr %131, i64 0, i64 0
  %133 = load i32, ptr %132, align 8, !tbaa !44
  %134 = mul nsw i32 %129, %133
  %135 = load i32, ptr %9, align 4, !tbaa !44
  %136 = load ptr, ptr %5, align 8, !tbaa !29
  %137 = getelementptr inbounds nuw %struct.TiffEncoderContext, ptr %136, i32 0, i32 21
  %138 = getelementptr inbounds [2 x i16], ptr %137, i64 0, i64 0
  %139 = load i16, ptr %138, align 4, !tbaa !49
  %140 = zext i16 %139 to i32
  %141 = mul nsw i32 %135, %140
  %142 = load i32, ptr %11, align 4, !tbaa !44
  %143 = add nsw i32 %141, %142
  %144 = load ptr, ptr %5, align 8, !tbaa !29
  %145 = getelementptr inbounds nuw %struct.TiffEncoderContext, ptr %144, i32 0, i32 2
  %146 = load i32, ptr %145, align 8, !tbaa !46
  %147 = sub nsw i32 %146, 1
  %148 = icmp sgt i32 %143, %147
  br i1 %148, label %149, label %154

149:                                              ; preds = %128
  %150 = load ptr, ptr %5, align 8, !tbaa !29
  %151 = getelementptr inbounds nuw %struct.TiffEncoderContext, ptr %150, i32 0, i32 2
  %152 = load i32, ptr %151, align 8, !tbaa !46
  %153 = sub nsw i32 %152, 1
  br label %164

154:                                              ; preds = %128
  %155 = load i32, ptr %9, align 4, !tbaa !44
  %156 = load ptr, ptr %5, align 8, !tbaa !29
  %157 = getelementptr inbounds nuw %struct.TiffEncoderContext, ptr %156, i32 0, i32 21
  %158 = getelementptr inbounds [2 x i16], ptr %157, i64 0, i64 0
  %159 = load i16, ptr %158, align 4, !tbaa !49
  %160 = zext i16 %159 to i32
  %161 = mul nsw i32 %155, %160
  %162 = load i32, ptr %11, align 4, !tbaa !44
  %163 = add nsw i32 %161, %162
  br label %164

164:                                              ; preds = %154, %149
  %165 = phi i32 [ %153, %149 ], [ %163, %154 ]
  %166 = add nsw i32 %134, %165
  %167 = sext i32 %166 to i64
  %168 = getelementptr inbounds i8, ptr %110, i64 %167
  %169 = load i8, ptr %168, align 1, !tbaa !86
  %170 = load ptr, ptr %7, align 8, !tbaa !65
  %171 = getelementptr inbounds nuw i8, ptr %170, i32 1
  store ptr %171, ptr %7, align 8, !tbaa !65
  store i8 %169, ptr %170, align 1, !tbaa !86
  br label %172

172:                                              ; preds = %164
  %173 = load i32, ptr %11, align 4, !tbaa !44
  %174 = add nsw i32 %173, 1
  store i32 %174, ptr %11, align 4, !tbaa !44
  br label %98, !llvm.loop !87

175:                                              ; preds = %98
  br label %176

176:                                              ; preds = %175
  %177 = load i32, ptr %10, align 4, !tbaa !44
  %178 = add nsw i32 %177, 1
  store i32 %178, ptr %10, align 4, !tbaa !44
  br label %89, !llvm.loop !88

179:                                              ; preds = %89
  %180 = load ptr, ptr %13, align 8, !tbaa !65
  %181 = getelementptr inbounds nuw i8, ptr %180, i32 1
  store ptr %181, ptr %13, align 8, !tbaa !65
  %182 = load i8, ptr %180, align 1, !tbaa !86
  %183 = load ptr, ptr %7, align 8, !tbaa !65
  %184 = getelementptr inbounds nuw i8, ptr %183, i32 1
  store ptr %184, ptr %7, align 8, !tbaa !65
  store i8 %182, ptr %183, align 1, !tbaa !86
  %185 = load ptr, ptr %14, align 8, !tbaa !65
  %186 = getelementptr inbounds nuw i8, ptr %185, i32 1
  store ptr %186, ptr %14, align 8, !tbaa !65
  %187 = load i8, ptr %185, align 1, !tbaa !86
  %188 = load ptr, ptr %7, align 8, !tbaa !65
  %189 = getelementptr inbounds nuw i8, ptr %188, i32 1
  store ptr %189, ptr %7, align 8, !tbaa !65
  store i8 %187, ptr %188, align 1, !tbaa !86
  br label %190

190:                                              ; preds = %179
  %191 = load i32, ptr %9, align 4, !tbaa !44
  %192 = add nsw i32 %191, 1
  store i32 %192, ptr %9, align 4, !tbaa !44
  br label %84, !llvm.loop !89

193:                                              ; preds = %84
  br label %267

194:                                              ; preds = %72
  store i32 0, ptr %9, align 4, !tbaa !44
  br label %195

195:                                              ; preds = %263, %194
  %196 = load i32, ptr %9, align 4, !tbaa !44
  %197 = load i32, ptr %12, align 4, !tbaa !44
  %198 = icmp slt i32 %196, %197
  br i1 %198, label %199, label %266

199:                                              ; preds = %195
  store i32 0, ptr %10, align 4, !tbaa !44
  br label %200

200:                                              ; preds = %249, %199
  %201 = load i32, ptr %10, align 4, !tbaa !44
  %202 = load ptr, ptr %5, align 8, !tbaa !29
  %203 = getelementptr inbounds nuw %struct.TiffEncoderContext, ptr %202, i32 0, i32 21
  %204 = getelementptr inbounds [2 x i16], ptr %203, i64 0, i64 1
  %205 = load i16, ptr %204, align 2, !tbaa !49
  %206 = zext i16 %205 to i32
  %207 = icmp slt i32 %201, %206
  br i1 %207, label %208, label %252

208:                                              ; preds = %200
  store i32 0, ptr %11, align 4, !tbaa !44
  br label %209

209:                                              ; preds = %245, %208
  %210 = load i32, ptr %11, align 4, !tbaa !44
  %211 = load ptr, ptr %5, align 8, !tbaa !29
  %212 = getelementptr inbounds nuw %struct.TiffEncoderContext, ptr %211, i32 0, i32 21
  %213 = getelementptr inbounds [2 x i16], ptr %212, i64 0, i64 0
  %214 = load i16, ptr %213, align 4, !tbaa !49
  %215 = zext i16 %214 to i32
  %216 = icmp slt i32 %210, %215
  br i1 %216, label %217, label %248

217:                                              ; preds = %209
  %218 = load ptr, ptr %6, align 8, !tbaa !37
  %219 = getelementptr inbounds nuw %struct.AVFrame, ptr %218, i32 0, i32 0
  %220 = getelementptr inbounds [8 x ptr], ptr %219, i64 0, i64 0
  %221 = load ptr, ptr %220, align 8, !tbaa !65
  %222 = load i32, ptr %8, align 4, !tbaa !44
  %223 = load i32, ptr %10, align 4, !tbaa !44
  %224 = add nsw i32 %222, %223
  %225 = load ptr, ptr %6, align 8, !tbaa !37
  %226 = getelementptr inbounds nuw %struct.AVFrame, ptr %225, i32 0, i32 1
  %227 = getelementptr inbounds [8 x i32], ptr %226, i64 0, i64 0
  %228 = load i32, ptr %227, align 8, !tbaa !44
  %229 = mul nsw i32 %224, %228
  %230 = load i32, ptr %9, align 4, !tbaa !44
  %231 = load ptr, ptr %5, align 8, !tbaa !29
  %232 = getelementptr inbounds nuw %struct.TiffEncoderContext, ptr %231, i32 0, i32 21
  %233 = getelementptr inbounds [2 x i16], ptr %232, i64 0, i64 0
  %234 = load i16, ptr %233, align 4, !tbaa !49
  %235 = zext i16 %234 to i32
  %236 = mul nsw i32 %230, %235
  %237 = add nsw i32 %229, %236
  %238 = load i32, ptr %11, align 4, !tbaa !44
  %239 = add nsw i32 %237, %238
  %240 = sext i32 %239 to i64
  %241 = getelementptr inbounds i8, ptr %221, i64 %240
  %242 = load i8, ptr %241, align 1, !tbaa !86
  %243 = load ptr, ptr %7, align 8, !tbaa !65
  %244 = getelementptr inbounds nuw i8, ptr %243, i32 1
  store ptr %244, ptr %7, align 8, !tbaa !65
  store i8 %242, ptr %243, align 1, !tbaa !86
  br label %245

245:                                              ; preds = %217
  %246 = load i32, ptr %11, align 4, !tbaa !44
  %247 = add nsw i32 %246, 1
  store i32 %247, ptr %11, align 4, !tbaa !44
  br label %209, !llvm.loop !90

248:                                              ; preds = %209
  br label %249

249:                                              ; preds = %248
  %250 = load i32, ptr %10, align 4, !tbaa !44
  %251 = add nsw i32 %250, 1
  store i32 %251, ptr %10, align 4, !tbaa !44
  br label %200, !llvm.loop !91

252:                                              ; preds = %200
  %253 = load ptr, ptr %13, align 8, !tbaa !65
  %254 = getelementptr inbounds nuw i8, ptr %253, i32 1
  store ptr %254, ptr %13, align 8, !tbaa !65
  %255 = load i8, ptr %253, align 1, !tbaa !86
  %256 = load ptr, ptr %7, align 8, !tbaa !65
  %257 = getelementptr inbounds nuw i8, ptr %256, i32 1
  store ptr %257, ptr %7, align 8, !tbaa !65
  store i8 %255, ptr %256, align 1, !tbaa !86
  %258 = load ptr, ptr %14, align 8, !tbaa !65
  %259 = getelementptr inbounds nuw i8, ptr %258, i32 1
  store ptr %259, ptr %14, align 8, !tbaa !65
  %260 = load i8, ptr %258, align 1, !tbaa !86
  %261 = load ptr, ptr %7, align 8, !tbaa !65
  %262 = getelementptr inbounds nuw i8, ptr %261, i32 1
  store ptr %262, ptr %7, align 8, !tbaa !65
  store i8 %260, ptr %261, align 1, !tbaa !86
  br label %263

263:                                              ; preds = %252
  %264 = load i32, ptr %9, align 4, !tbaa !44
  %265 = add nsw i32 %264, 1
  store i32 %265, ptr %9, align 4, !tbaa !44
  br label %195, !llvm.loop !92

266:                                              ; preds = %195
  br label %267

267:                                              ; preds = %266, %193
  call void @llvm.lifetime.end.p0(i64 8, ptr %14) #9
  call void @llvm.lifetime.end.p0(i64 8, ptr %13) #9
  call void @llvm.lifetime.end.p0(i64 4, ptr %12) #9
  call void @llvm.lifetime.end.p0(i64 4, ptr %11) #9
  call void @llvm.lifetime.end.p0(i64 4, ptr %10) #9
  call void @llvm.lifetime.end.p0(i64 4, ptr %9) #9
  ret void
}