; Function Attrs: nofree norecurse nosync nounwind memory(read, argmem: readwrite, inaccessiblemem: none) uwtable
define internal fastcc void @pack_yuv(ptr noundef readonly captures(none) %0, ptr noundef readonly captures(none) %1, ptr noundef writeonly captures(none) %2, i32 noundef %3) unnamed_addr #6 {
  %5 = getelementptr inbounds nuw i8, ptr %0, i64 16
  %6 = load i32, ptr %5, align 8, !tbaa !36
  %7 = add nsw i32 %6, -1
  %8 = getelementptr inbounds nuw i8, ptr %0, i64 508
  %9 = load i16, ptr %8, align 4, !tbaa !39
  %10 = zext i16 %9 to i32
  %11 = sdiv i32 %7, %10
  %12 = getelementptr inbounds nuw i8, ptr %1, i64 8
  %13 = load ptr, ptr %12, align 8, !tbaa !55
  %14 = getelementptr inbounds nuw i8, ptr %0, i64 510
  %15 = load i16, ptr %14, align 2, !tbaa !39
  %16 = zext i16 %15 to i32
  %17 = sdiv i32 %3, %16
  %18 = getelementptr inbounds nuw i8, ptr %1, i64 64
  %19 = getelementptr inbounds nuw i8, ptr %1, i64 68
  %20 = load i32, ptr %19, align 4, !tbaa !34
  %21 = mul nsw i32 %20, %17
  %22 = sext i32 %21 to i64
  %23 = getelementptr inbounds i8, ptr %13, i64 %22
  %24 = getelementptr inbounds nuw i8, ptr %1, i64 16
  %25 = load ptr, ptr %24, align 8, !tbaa !55
  %26 = getelementptr inbounds nuw i8, ptr %1, i64 72
  %27 = load i32, ptr %26, align 8, !tbaa !34
  %28 = mul nsw i32 %27, %17
  %29 = sext i32 %28 to i64
  %30 = getelementptr inbounds i8, ptr %25, i64 %29
  %31 = srem i32 %6, %10
  %.not = icmp eq i32 %31, 0
  br i1 %.not, label %32, label %36

32:                                               ; preds = %4
  %33 = getelementptr inbounds nuw i8, ptr %0, i64 20
  %34 = load i32, ptr %33, align 4, !tbaa !38
  %35 = srem i32 %34, %16
  %.not79 = icmp eq i32 %35, 0
  br i1 %.not79, label %.preheader85, label %36

.preheader85:                                     ; preds = %32
  %.not80109 = icmp slt i32 %11, 0
  br i1 %.not80109, label %.loopexit, label %.preheader84

36:                                               ; preds = %32, %4
  %.not8195 = icmp slt i32 %11, 0
  br i1 %.not8195, label %.loopexit, label %.preheader87.lr.ph

.preheader87.lr.ph:                               ; preds = %36
  %37 = getelementptr inbounds nuw i8, ptr %0, i64 20
  br label %.preheader87

.preheader87:                                     ; preds = %.preheader87.lr.ph, %._crit_edge93
  %.099 = phi ptr [ %30, %.preheader87.lr.ph ], [ %73, %._crit_edge93 ]
  %.06498 = phi ptr [ %23, %.preheader87.lr.ph ], [ %70, %._crit_edge93 ]
  %.06697 = phi ptr [ %2, %.preheader87.lr.ph ], [ %75, %._crit_edge93 ]
  %.07296 = phi i32 [ 0, %.preheader87.lr.ph ], [ %76, %._crit_edge93 ]
  %38 = load i16, ptr %14, align 2, !tbaa !39
  %.not114 = icmp eq i16 %38, 0
  br i1 %.not114, label %._crit_edge93, label %.preheader86.preheader

.preheader86.preheader:                           ; preds = %.preheader87
  %.pre = load i16, ptr %8, align 4, !tbaa !39
  br label %.preheader86

.preheader86:                                     ; preds = %.preheader86.preheader, %._crit_edge
  %39 = phi i16 [ %65, %._crit_edge ], [ %38, %.preheader86.preheader ]
  %40 = phi i16 [ %66, %._crit_edge ], [ %.pre, %.preheader86.preheader ]
  %.16792 = phi ptr [ %.2.lcssa, %._crit_edge ], [ %.06697, %.preheader86.preheader ]
  %.07091 = phi i32 [ %67, %._crit_edge ], [ 0, %.preheader86.preheader ]
  %.not115 = icmp eq i16 %40, 0
  br i1 %.not115, label %._crit_edge, label %.lr.ph

.lr.ph:                                           ; preds = %.preheader86
  %41 = zext i16 %40 to i32
  %42 = add nsw i32 %.07091, %3
  br label %43

43:                                               ; preds = %.lr.ph, %43
  %44 = phi i32 [ %41, %.lr.ph ], [ %63, %43 ]
  %.290 = phi ptr [ %.16792, %.lr.ph ], [ %60, %43 ]
  %.06889 = phi i32 [ 0, %.lr.ph ], [ %61, %43 ]
  %45 = load ptr, ptr %1, align 8, !tbaa !55
  %46 = load i32, ptr %37, align 4, !tbaa !38
  %.not82 = icmp slt i32 %42, %46
  %47 = add nsw i32 %46, -1
  %48 = select i1 %.not82, i32 %42, i32 %47
  %49 = load i32, ptr %18, align 8, !tbaa !34
  %50 = mul nsw i32 %48, %49
  %51 = mul nuw nsw i32 %44, %.07296
  %52 = add nuw nsw i32 %51, %.06889
  %53 = load i32, ptr %5, align 8, !tbaa !36
  %.not83 = icmp slt i32 %52, %53
  %54 = add nsw i32 %53, -1
  %55 = select i1 %.not83, i32 %52, i32 %54
  %56 = add nsw i32 %55, %50
  %57 = sext i32 %56 to i64
  %58 = getelementptr inbounds i8, ptr %45, i64 %57
  %59 = load i8, ptr %58, align 1, !tbaa !60
  %60 = getelementptr inbounds nuw i8, ptr %.290, i64 1
  store i8 %59, ptr %.290, align 1, !tbaa !60
  %61 = add nuw nsw i32 %.06889, 1
  %62 = load i16, ptr %8, align 4, !tbaa !39
  %63 = zext i16 %62 to i32
  %64 = icmp samesign ult i32 %61, %63
  br i1 %64, label %43, label %._crit_edge.loopexit, !llvm.loop !73

._crit_edge.loopexit:                             ; preds = %43
  %.pre121 = load i16, ptr %14, align 2, !tbaa !39
  br label %._crit_edge

._crit_edge:                                      ; preds = %._crit_edge.loopexit, %.preheader86
  %65 = phi i16 [ %39, %.preheader86 ], [ %.pre121, %._crit_edge.loopexit ]
  %66 = phi i16 [ 0, %.preheader86 ], [ %62, %._crit_edge.loopexit ]
  %.2.lcssa = phi ptr [ %.16792, %.preheader86 ], [ %60, %._crit_edge.loopexit ]
  %67 = add nuw nsw i32 %.07091, 1
  %68 = zext i16 %65 to i32
  %69 = icmp samesign ult i32 %67, %68
  br i1 %69, label %.preheader86, label %._crit_edge93, !llvm.loop !74

._crit_edge93:                                    ; preds = %._crit_edge, %.preheader87
  %.167.lcssa = phi ptr [ %.06697, %.preheader87 ], [ %.2.lcssa, %._crit_edge ]
  %70 = getelementptr inbounds nuw i8, ptr %.06498, i64 1
  %71 = load i8, ptr %.06498, align 1, !tbaa !60
  %72 = getelementptr inbounds nuw i8, ptr %.167.lcssa, i64 1
  store i8 %71, ptr %.167.lcssa, align 1, !tbaa !60
  %73 = getelementptr inbounds nuw i8, ptr %.099, i64 1
  %74 = load i8, ptr %.099, align 1, !tbaa !60
  %75 = getelementptr inbounds nuw i8, ptr %.167.lcssa, i64 2
  store i8 %74, ptr %72, align 1, !tbaa !60
  %76 = add nuw i32 %.07296, 1
  %exitcond.not = icmp eq i32 %.07296, %11
  br i1 %exitcond.not, label %.loopexit, label %.preheader87, !llvm.loop !75

.preheader84:                                     ; preds = %.preheader85, %._crit_edge107
  %.1113 = phi ptr [ %106, %._crit_edge107 ], [ %30, %.preheader85 ]
  %.165112 = phi ptr [ %103, %._crit_edge107 ], [ %23, %.preheader85 ]
  %.3111 = phi ptr [ %108, %._crit_edge107 ], [ %2, %.preheader85 ]
  %.173110 = phi i32 [ %109, %._crit_edge107 ], [ 0, %.preheader85 ]
  %77 = load i16, ptr %14, align 2, !tbaa !39
  %.not116 = icmp eq i16 %77, 0
  br i1 %.not116, label %._crit_edge107, label %.preheader.preheader

.preheader.preheader:                             ; preds = %.preheader84
  %.pre122 = load i16, ptr %8, align 4, !tbaa !39
  br label %.preheader

.preheader:                                       ; preds = %.preheader.preheader, %._crit_edge103
  %78 = phi i16 [ %98, %._crit_edge103 ], [ %77, %.preheader.preheader ]
  %79 = phi i16 [ %99, %._crit_edge103 ], [ %.pre122, %.preheader.preheader ]
  %.4106 = phi ptr [ %.5.lcssa, %._crit_edge103 ], [ %.3111, %.preheader.preheader ]
  %.171105 = phi i32 [ %100, %._crit_edge103 ], [ 0, %.preheader.preheader ]
  %.not117 = icmp eq i16 %79, 0
  br i1 %.not117, label %._crit_edge103, label %.lr.ph102

.lr.ph102:                                        ; preds = %.preheader
  %80 = zext i16 %79 to i32
  %81 = add nsw i32 %.171105, %3
  br label %82

82:                                               ; preds = %.lr.ph102, %82
  %83 = phi i32 [ %80, %.lr.ph102 ], [ %96, %82 ]
  %.5101 = phi ptr [ %.4106, %.lr.ph102 ], [ %93, %82 ]
  %.169100 = phi i32 [ 0, %.lr.ph102 ], [ %94, %82 ]
  %84 = load ptr, ptr %1, align 8, !tbaa !55
  %85 = load i32, ptr %18, align 8, !tbaa !34
  %86 = mul nsw i32 %85, %81
  %87 = mul nuw nsw i32 %83, %.173110
  %88 = add nuw i32 %87, %.169100
  %89 = add i32 %88, %86
  %90 = sext i32 %89 to i64
  %91 = getelementptr inbounds i8, ptr %84, i64 %90
  %92 = load i8, ptr %91, align 1, !tbaa !60
  %93 = getelementptr inbounds nuw i8, ptr %.5101, i64 1
  store i8 %92, ptr %.5101, align 1, !tbaa !60
  %94 = add nuw nsw i32 %.169100, 1
  %95 = load i16, ptr %8, align 4, !tbaa !39
  %96 = zext i16 %95 to i32
  %97 = icmp samesign ult i32 %94, %96
  br i1 %97, label %82, label %._crit_edge103.loopexit, !llvm.loop !76

._crit_edge103.loopexit:                          ; preds = %82
  %.pre123 = load i16, ptr %14, align 2, !tbaa !39
  br label %._crit_edge103

._crit_edge103:                                   ; preds = %._crit_edge103.loopexit, %.preheader
  %98 = phi i16 [ %78, %.preheader ], [ %.pre123, %._crit_edge103.loopexit ]
  %99 = phi i16 [ 0, %.preheader ], [ %95, %._crit_edge103.loopexit ]
  %.5.lcssa = phi ptr [ %.4106, %.preheader ], [ %93, %._crit_edge103.loopexit ]
  %100 = add nuw nsw i32 %.171105, 1
  %101 = zext i16 %98 to i32
  %102 = icmp samesign ult i32 %100, %101
  br i1 %102, label %.preheader, label %._crit_edge107, !llvm.loop !77

._crit_edge107:                                   ; preds = %._crit_edge103, %.preheader84
  %.4.lcssa = phi ptr [ %.3111, %.preheader84 ], [ %.5.lcssa, %._crit_edge103 ]
  %103 = getelementptr inbounds nuw i8, ptr %.165112, i64 1
  %104 = load i8, ptr %.165112, align 1, !tbaa !60
  %105 = getelementptr inbounds nuw i8, ptr %.4.lcssa, i64 1
  store i8 %104, ptr %.4.lcssa, align 1, !tbaa !60
  %106 = getelementptr inbounds nuw i8, ptr %.1113, i64 1
  %107 = load i8, ptr %.1113, align 1, !tbaa !60
  %108 = getelementptr inbounds nuw i8, ptr %.4.lcssa, i64 2
  store i8 %107, ptr %105, align 1, !tbaa !60
  %109 = add nuw i32 %.173110, 1
  %exitcond120.not = icmp eq i32 %.173110, %11
  br i1 %exitcond120.not, label %.loopexit, label %.preheader84, !llvm.loop !78

.loopexit:                                        ; preds = %._crit_edge93, %._crit_edge107, %36, %.preheader85
  ret void
}